; ModuleID = '34/386.c'
source_filename = "34/386.c"
target datalayout = "e-m:e-p270:32:32-p271:32:32-p272:64:64-i64:64-f80:128-n8:16:32:64-S128"
target triple = "x86_64-pc-linux-gnu"

@.str = private unnamed_addr constant [3 x i8] c"%d\00", align 1
@.str.1 = private unnamed_addr constant [5 x i8] c"End\0A\00", align 1
@.str.2 = private unnamed_addr constant [11 x i8] c"%d*3+1=%d\0A\00", align 1
@.str.3 = private unnamed_addr constant [9 x i8] c"%d/2=%d\0A\00", align 1

; Function Attrs: noinline nounwind uwtable
define dso_local void @main() #0 {
  %1 = alloca i32, align 4
  %2 = alloca i32, align 4
  %3 = call i32 (i8*, ...) @__isoc99_scanf(i8* getelementptr inbounds ([3 x i8], [3 x i8]* @.str, i64 0, i64 0), i32* %1)
  %4 = load i32, i32* %1, align 4
  %5 = call i32 @digui(i32 %4)
  store i32 %5, i32* %2, align 4
  %6 = call i32 (i8*, ...) @printf(i8* getelementptr inbounds ([5 x i8], [5 x i8]* @.str.1, i64 0, i64 0))
  ret void
}

declare dso_local i32 @__isoc99_scanf(i8*, ...) #1

; Function Attrs: noinline nounwind uwtable
define dso_local i32 @digui(i32 %0) #0 {
  %2 = alloca i32, align 4
  %3 = alloca i32, align 4
  store i32 %0, i32* %3, align 4
  %4 = load i32, i32* %3, align 4
  %5 = icmp eq i32 %4, 1
  br i1 %5, label %6, label %7

6:                                                ; preds = %1
  store i32 0, i32* %2, align 4
  br label %35

7:                                                ; preds = %1
  %8 = load i32, i32* %3, align 4
  %9 = srem i32 %8, 2
  %10 = icmp eq i32 %9, 1
  br i1 %10, label %11, label %21

11:                                               ; preds = %7
  %12 = load i32, i32* %3, align 4
  %13 = load i32, i32* %3, align 4
  %14 = mul nsw i32 %13, 3
  %15 = add nsw i32 %14, 1
  %16 = call i32 (i8*, ...) @printf(i8* getelementptr inbounds ([11 x i8], [11 x i8]* @.str.2, i64 0, i64 0), i32 %12, i32 %15)
  %17 = load i32, i32* %3, align 4
  %18 = mul nsw i32 %17, 3
  %19 = add nsw i32 %18, 1
  %20 = call i32 @digui(i32 %19)
  store i32 %20, i32* %2, align 4
  br label %35

21:                                               ; preds = %7
  %22 = load i32, i32* %3, align 4
  %23 = srem i32 %22, 2
  %24 = icmp eq i32 %23, 0
  br i1 %24, label %25, label %33

25:                                               ; preds = %21
  %26 = load i32, i32* %3, align 4
  %27 = load i32, i32* %3, align 4
  %28 = sdiv i32 %27, 2
  %29 = call i32 (i8*, ...) @printf(i8* getelementptr inbounds ([9 x i8], [9 x i8]* @.str.3, i64 0, i64 0), i32 %26, i32 %28)
  %30 = load i32, i32* %3, align 4
  %31 = sdiv i32 %30, 2
  %32 = call i32 @digui(i32 %31)
  store i32 %32, i32* %2, align 4
  br label %35

33:                                               ; preds = %21
  br label %34

34:                                               ; preds = %33
  br label %35

35:                                               ; preds = %6, %11, %25, %34
  %36 = load i32, i32* %2, align 4
  ret i32 %36
}

declare dso_local i32 @printf(i8*, ...) #1


!llvm.module.flags = !{!0}
!llvm.ident = !{!1}

!0 = !{i32 1, !"wchar_size", i32 4}
!1 = !{!"clang version 10.0.0-4ubuntu1 "}
